target datalayout = "e-m:e-p270:32:32-p271:32:32-p272:64:64-i64:64-i128:128-f80:128-n8:16:32:64-S128"
target triple = "x86_64-unknown-linux-gnu"

%struct.MemoryRegionPortio = type { i32, i32, i32, ptr, ptr, i32 }
%struct.PortioList = type { ptr, ptr, ptr, i32, ptr, ptr, ptr, i8 }

; Function Attrs: nounwind sspstrong uwtable
define dso_local void @portio_list_init(ptr noundef %piolist, ptr noundef %owner, ptr noundef %callbacks, ptr noundef %opaque, ptr noundef %name) #0 {
entry:
  %piolist.addr = alloca ptr, align 8
  %owner.addr = alloca ptr, align 8
  %callbacks.addr = alloca ptr, align 8
  %opaque.addr = alloca ptr, align 8
  %name.addr = alloca ptr, align 8
  %n = alloca i32, align 4
  store ptr %piolist, ptr %piolist.addr, align 8
  store ptr %owner, ptr %owner.addr, align 8
  store ptr %callbacks, ptr %callbacks.addr, align 8
  store ptr %opaque, ptr %opaque.addr, align 8
  store ptr %name, ptr %name.addr, align 8
  store i32 0, ptr %n, align 4
  br label %while.cond

while.cond:                                       ; preds = %while.body, %entry
  %0 = load ptr, ptr %callbacks.addr, align 8
  %1 = load i32, ptr %n, align 4
  %idxprom = zext i32 %1 to i64
  %arrayidx = getelementptr %struct.MemoryRegionPortio, ptr %0, i64 %idxprom
  %size = getelementptr inbounds %struct.MemoryRegionPortio, ptr %arrayidx, i32 0, i32 2
  %2 = load i32, ptr %size, align 8
  %tobool = icmp ne i32 %2, 0
  br i1 %tobool, label %while.body, label %while.end

while.body:                                       ; preds = %while.cond
  %3 = load i32, ptr %n, align 4
  %inc = add i32 %3, 1
  store i32 %inc, ptr %n, align 4
  br label %while.cond, !llvm.loop !5

while.end:                                        ; preds = %while.cond
  %4 = load ptr, ptr %callbacks.addr, align 8
  %5 = load ptr, ptr %piolist.addr, align 8
  %ports = getelementptr inbounds %struct.PortioList, ptr %5, i32 0, i32 0
  store ptr %4, ptr %ports, align 8
  %6 = load ptr, ptr %piolist.addr, align 8
  %nr = getelementptr inbounds %struct.PortioList, ptr %6, i32 0, i32 3
  store i32 0, ptr %nr, align 8
  %7 = load i32, ptr %n, align 4
  %conv = zext i32 %7 to i64
  %call = call noalias ptr @g_malloc0_n(i64 noundef %conv, i64 noundef 8) #11
  %8 = load ptr, ptr %piolist.addr, align 8
  %regions = getelementptr inbounds %struct.PortioList, ptr %8, i32 0, i32 4
  store ptr %call, ptr %regions, align 8
  %9 = load ptr, ptr %piolist.addr, align 8
  %address_space = getelementptr inbounds %struct.PortioList, ptr %9, i32 0, i32 2
  store ptr null, ptr %address_space, align 8
  %10 = load ptr, ptr %opaque.addr, align 8
  %11 = load ptr, ptr %piolist.addr, align 8
  %opaque1 = getelementptr inbounds %struct.PortioList, ptr %11, i32 0, i32 5
  store ptr %10, ptr %opaque1, align 8
  %12 = load ptr, ptr %owner.addr, align 8
  %13 = load ptr, ptr %piolist.addr, align 8
  %owner2 = getelementptr inbounds %struct.PortioList, ptr %13, i32 0, i32 1
  store ptr %12, ptr %owner2, align 8
  %14 = load ptr, ptr %name.addr, align 8
  %15 = load ptr, ptr %piolist.addr, align 8
  %name3 = getelementptr inbounds %struct.PortioList, ptr %15, i32 0, i32 6
  store ptr %14, ptr %name3, align 8
  %16 = load ptr, ptr %piolist.addr, align 8
  %flush_coalesced_mmio = getelementptr inbounds %struct.PortioList, ptr %16, i32 0, i32 7
  store i8 0, ptr %flush_coalesced_mmio, align 8
  ret void
}