; Function Attrs: nounwind sspstrong uwtable
define dso_local void @portio_list_init(ptr noundef writeonly captures(none) %piolist, ptr noundef %owner, ptr noundef %callbacks, ptr noundef %opaque, ptr noundef %name) local_unnamed_addr #1 {
entry:
  br label %while.cond

while.cond:                                       ; preds = %while.cond, %entry
  %n.0 = phi i32 [ 0, %entry ], [ %inc, %while.cond ]
  %idxprom = zext i32 %n.0 to i64
  %size = getelementptr %struct.MemoryRegionPortio, ptr %callbacks, i64 %idxprom, i32 2
  %0 = load i32, ptr %size, align 8
  %tobool.not = icmp eq i32 %0, 0
  %inc = add i32 %n.0, 1
  br i1 %tobool.not, label %while.end, label %while.cond, !llvm.loop !8

while.end:                                        ; preds = %while.cond
  store ptr %callbacks, ptr %piolist, align 8
  %nr = getelementptr inbounds nuw i8, ptr %piolist, i64 24
  store i32 0, ptr %nr, align 8
  %call = tail call noalias ptr @g_malloc0_n(i64 noundef %idxprom, i64 noundef 8) #13
  %regions = getelementptr inbounds nuw i8, ptr %piolist, i64 32
  store ptr %call, ptr %regions, align 8
  %address_space = getelementptr inbounds nuw i8, ptr %piolist, i64 16
  store ptr null, ptr %address_space, align 8
  %opaque1 = getelementptr inbounds nuw i8, ptr %piolist, i64 40
  store ptr %opaque, ptr %opaque1, align 8
  %owner2 = getelementptr inbounds nuw i8, ptr %piolist, i64 8
  store ptr %owner, ptr %owner2, align 8
  %name3 = getelementptr inbounds nuw i8, ptr %piolist, i64 48
  store ptr %name, ptr %name3, align 8
  %flush_coalesced_mmio = getelementptr inbounds nuw i8, ptr %piolist, i64 56
  store i8 0, ptr %flush_coalesced_mmio, align 8
  ret void
}